target datalayout = "e-m:e-p270:32:32-p271:32:32-p272:64:64-i64:64-i128:128-f80:128-n8:16:32:64-S128"
target triple = "x86_64-pc-linux-gnu"

%struct.expert_field = type { i32, i32 }

@ei_reload_truncated_field = internal global %struct.expert_field zeroinitializer, align 4
@hf_reload_nodeid = internal global i32 0, align 4
@reload_nodeid_length = internal global i32 16, align 4
@.str.644 = private unnamed_addr constant [17 x i8] c"Truncated NodeId\00", align 1
@.str.645 = private unnamed_addr constant [13 x i8] c"\0A  [Invalid]\00", align 1
@.str.646 = private unnamed_addr constant [14 x i8] c"\0A  [Wildcard]\00", align 1

; Function Attrs: null_pointer_is_valid sspstrong uwtable
define internal i32 @dissect_nodeid(i32 noundef %0, ptr noundef %1, ptr noundef %2, ptr noundef %3, i16 noundef zeroext %4, i16 noundef zeroext %5) #0 {
  %7 = alloca i32, align 4
  %8 = alloca i32, align 4
  %9 = alloca ptr, align 8
  %10 = alloca ptr, align 8
  %11 = alloca ptr, align 8
  %12 = alloca i16, align 2
  %13 = alloca i16, align 2
  %14 = alloca ptr, align 8
  %15 = alloca i32, align 4
  %16 = alloca i32, align 4
  %17 = alloca i8, align 1
  %18 = alloca i8, align 1
  %19 = alloca i32, align 4
  %20 = alloca i8, align 1
  store i32 %0, ptr %8, align 4
  store ptr %1, ptr %9, align 8
  store ptr %2, ptr %10, align 8
  store ptr %3, ptr %11, align 8
  store i16 %4, ptr %12, align 2
  store i16 %5, ptr %13, align 2
  call void @llvm.lifetime.start.p0(i64 8, ptr %14) #8
  call void @llvm.lifetime.start.p0(i64 4, ptr %15) #8
  %21 = load i32, ptr @hf_reload_nodeid, align 4
  store i32 %21, ptr %15, align 4
  %22 = load i32, ptr %8, align 4
  %23 = icmp sge i32 %22, 0
  br i1 %23, label %24, label %26

24:                                               ; preds = %6
  %25 = load i32, ptr %8, align 4
  store i32 %25, ptr %15, align 4
  br label %26

26:                                               ; preds = %24, %6
  %27 = load i16, ptr %13, align 2
  %28 = zext i16 %27 to i32
  %29 = load i32, ptr @reload_nodeid_length, align 4
  %30 = icmp ult i32 %28, %29
  br i1 %30, label %31, label %45

31:                                               ; preds = %26
  %32 = load ptr, ptr %11, align 8
  %33 = load i32, ptr %15, align 4
  %34 = load ptr, ptr %9, align 8
  %35 = load i16, ptr %12, align 2
  %36 = zext i16 %35 to i32
  %37 = load i16, ptr %13, align 2
  %38 = zext i16 %37 to i32
  %39 = call ptr @proto_tree_add_item(ptr noundef %32, i32 noundef %33, ptr noundef %34, i32 noundef %36, i32 noundef %38, i32 noundef 0)
  store ptr %39, ptr %14, align 8
  %40 = load ptr, ptr %10, align 8
  %41 = load ptr, ptr %14, align 8
  %42 = call ptr (ptr, ptr, ptr, ptr, ...) @expert_add_info_format(ptr noundef %40, ptr noundef %41, ptr noundef @ei_reload_truncated_field, ptr noundef @.str.644)
  %43 = load i16, ptr %13, align 2
  %44 = zext i16 %43 to i32
  store i32 %44, ptr %7, align 4
  store i32 1, ptr %16, align 4
  br label %104

45:                                               ; preds = %26
  %46 = load ptr, ptr %11, align 8
  %47 = load i32, ptr %15, align 4
  %48 = load ptr, ptr %9, align 8
  %49 = load i16, ptr %12, align 2
  %50 = zext i16 %49 to i32
  %51 = load i32, ptr @reload_nodeid_length, align 4
  %52 = call ptr @proto_tree_add_item(ptr noundef %46, i32 noundef %47, ptr noundef %48, i32 noundef %50, i32 noundef %51, i32 noundef 0)
  store ptr %52, ptr %14, align 8
  call void @llvm.lifetime.start.p0(i64 1, ptr %17) #8
  store i8 1, ptr %17, align 1
  call void @llvm.lifetime.start.p0(i64 1, ptr %18) #8
  store i8 1, ptr %18, align 1
  call void @llvm.lifetime.start.p0(i64 4, ptr %19) #8
  store i32 0, ptr %19, align 4
  br label %53

53:                                               ; preds = %89, %45
  %54 = load i32, ptr %19, align 4
  %55 = load i32, ptr @reload_nodeid_length, align 4
  %56 = icmp ult i32 %54, %55
  br i1 %56, label %57, label %92

57:                                               ; preds = %53
  call void @llvm.lifetime.start.p0(i64 1, ptr %20) #8
  %58 = load ptr, ptr %9, align 8
  %59 = load i16, ptr %12, align 2
  %60 = zext i16 %59 to i32
  %61 = load i32, ptr %19, align 4
  %62 = add i32 %60, %61
  %63 = call zeroext i8 @tvb_get_uint8(ptr noundef %58, i32 noundef %62)
  store i8 %63, ptr %20, align 1
  %64 = load i8, ptr %20, align 1
  %65 = zext i8 %64 to i32
  %66 = icmp ne i32 %65, 0
  br i1 %66, label %67, label %74

67:                                               ; preds = %57
  store i8 0, ptr %17, align 1
  %68 = load i8, ptr %18, align 1, !range !15, !noundef !16
  %69 = trunc i8 %68 to i1
  %70 = zext i1 %69 to i32
  %71 = icmp eq i32 %70, 0
  br i1 %71, label %72, label %73

72:                                               ; preds = %67
  store i32 2, ptr %16, align 4
  br label %86

73:                                               ; preds = %67
  br label %74

74:                                               ; preds = %73, %57
  %75 = load i8, ptr %20, align 1
  %76 = zext i8 %75 to i32
  %77 = icmp ne i32 %76, 255
  br i1 %77, label %78, label %85

78:                                               ; preds = %74
  store i8 0, ptr %18, align 1
  %79 = load i8, ptr %17, align 1, !range !15, !noundef !16
  %80 = trunc i8 %79 to i1
  %81 = zext i1 %80 to i32
  %82 = icmp eq i32 %81, 0
  br i1 %82, label %83, label %84

83:                                               ; preds = %78
  store i32 2, ptr %16, align 4
  br label %86

84:                                               ; preds = %78
  br label %85

85:                                               ; preds = %84, %74
  store i32 0, ptr %16, align 4
  br label %86

86:                                               ; preds = %85, %83, %72
  call void @llvm.lifetime.end.p0(i64 1, ptr %20) #8
  %87 = load i32, ptr %16, align 4
  switch i32 %87, label %106 [
    i32 0, label %88
    i32 2, label %92
  ]

88:                                               ; preds = %86
  br label %89

89:                                               ; preds = %88
  %90 = load i32, ptr %19, align 4
  %91 = add i32 %90, 1
  store i32 %91, ptr %19, align 4
  br label %53, !llvm.loop !28

92:                                               ; preds = %86, %53
  %93 = load i8, ptr %17, align 1, !range !15, !noundef !16
  %94 = trunc i8 %93 to i1
  br i1 %94, label %95, label %97

95:                                               ; preds = %92
  %96 = load ptr, ptr %14, align 8
  call void (ptr, ptr, ...) @proto_item_append_text(ptr noundef %96, ptr noundef @.str.645)
  br label %97

97:                                               ; preds = %95, %92
  %98 = load i8, ptr %18, align 1, !range !15, !noundef !16
  %99 = trunc i8 %98 to i1
  br i1 %99, label %100, label %102

100:                                              ; preds = %97
  %101 = load ptr, ptr %14, align 8
  call void (ptr, ptr, ...) @proto_item_append_text(ptr noundef %101, ptr noundef @.str.646)
  br label %102

102:                                              ; preds = %100, %97
  call void @llvm.lifetime.end.p0(i64 4, ptr %19) #8
  call void @llvm.lifetime.end.p0(i64 1, ptr %18) #8
  call void @llvm.lifetime.end.p0(i64 1, ptr %17) #8
  %103 = load i32, ptr @reload_nodeid_length, align 4
  store i32 %103, ptr %7, align 4
  store i32 1, ptr %16, align 4
  br label %104

104:                                              ; preds = %102, %31
  call void @llvm.lifetime.end.p0(i64 4, ptr %15) #8
  call void @llvm.lifetime.end.p0(i64 8, ptr %14) #8
  %105 = load i32, ptr %7, align 4
  ret i32 %105

106:                                              ; preds = %86
  unreachable
}