; Function Attrs: null_pointer_is_valid sspstrong uwtable
define internal fastcc i32 @dissect_nodeid(i32 noundef %0, ptr noundef %1, ptr noundef %2, ptr noundef %3, i16 noundef zeroext %4, i16 noundef zeroext %5) unnamed_addr #0 {
  %7 = load i32, ptr @hf_reload_nodeid, align 4
  %8 = icmp slt i32 %0, 0
  %spec.select = select i1 %8, i32 %7, i32 %0
  %9 = zext i16 %5 to i32
  %10 = load i32, ptr @reload_nodeid_length, align 4
  %11 = icmp ugt i32 %10, %9
  %12 = zext i16 %4 to i32
  br i1 %11, label %13, label %16

13:                                               ; preds = %6
  %14 = tail call ptr @proto_tree_add_item(ptr noundef %3, i32 noundef %spec.select, ptr noundef %1, i32 noundef %12, i32 noundef %9, i32 noundef 0)
  %15 = tail call ptr (ptr, ptr, ptr, ptr, ...) @expert_add_info_format(ptr noundef %2, ptr noundef %14, ptr noundef nonnull @ei_reload_truncated_field, ptr noundef nonnull @.str.644)
  br label %32

16:                                               ; preds = %6
  %17 = tail call ptr @proto_tree_add_item(ptr noundef %3, i32 noundef %spec.select, ptr noundef %1, i32 noundef %12, i32 noundef %10, i32 noundef 0)
  %18 = load i32, ptr @reload_nodeid_length, align 4
  %.not71 = icmp eq i32 %18, 0
  br i1 %.not71, label %select.unfold.thread, label %.lr.ph

.lr.ph:                                           ; preds = %16, %24
  %.02967 = phi i32 [ %25, %24 ], [ 0, %16 ]
  %.03066 = phi i8 [ %.2.ph, %24 ], [ 1, %16 ]
  %.03165 = phi i8 [ %.334.ph, %24 ], [ 1, %16 ]
  %19 = add i32 %.02967, %12
  %20 = tail call zeroext i8 @tvb_get_uint8(ptr noundef %1, i32 noundef %19)
  %.not = icmp eq i8 %20, 0
  br i1 %.not, label %.thread, label %21

21:                                               ; preds = %.lr.ph
  %22 = icmp ne i8 %.03066, 0
  %.not40 = icmp eq i8 %20, -1
  %or.cond = and i1 %22, %.not40
  br i1 %or.cond, label %24, label %.thread52.thread

.thread:                                          ; preds = %.lr.ph
  %23 = icmp eq i8 %.03165, 0
  br i1 %23, label %.thread52.thread, label %24

24:                                               ; preds = %21, %.thread
  %.334.ph = phi i8 [ %.03165, %.thread ], [ 0, %21 ]
  %.2.ph = phi i8 [ 0, %.thread ], [ %.03066, %21 ]
  %25 = add nuw i32 %.02967, 1
  %26 = load i32, ptr @reload_nodeid_length, align 4
  %27 = icmp ult i32 %25, %26
  br i1 %27, label %.lr.ph, label %select.unfold, !llvm.loop !21

select.unfold:                                    ; preds = %24
  %28 = trunc nuw i8 %.334.ph to i1
  br i1 %28, label %select.unfold.thread, label %.thread52

select.unfold.thread:                             ; preds = %16, %select.unfold
  %.176 = phi i8 [ %.2.ph, %select.unfold ], [ 1, %16 ]
  tail call void (ptr, ptr, ...) @proto_item_append_text(ptr noundef %17, ptr noundef nonnull @.str.645)
  br label %.thread52

.thread52:                                        ; preds = %select.unfold.thread, %select.unfold
  %.155 = phi i8 [ %.176, %select.unfold.thread ], [ %.2.ph, %select.unfold ]
  %29 = trunc nuw i8 %.155 to i1
  br i1 %29, label %30, label %.thread52.thread

30:                                               ; preds = %.thread52
  tail call void (ptr, ptr, ...) @proto_item_append_text(ptr noundef %17, ptr noundef nonnull @.str.646)
  br label %.thread52.thread

.thread52.thread:                                 ; preds = %.thread, %21, %30, %.thread52
  %31 = load i32, ptr @reload_nodeid_length, align 4
  br label %32

32:                                               ; preds = %.thread52.thread, %13
  %.0 = phi i32 [ %9, %13 ], [ %31, %.thread52.thread ]
  ret i32 %.0
}